ccopy_reg
_reconstructor
p0
(castropy.io.fits.header
Header
p1
c__builtin__
object
p2
Ntp3
Rp4
(dp5
S'_cards'
p6
(lp7
g0
(castropy.io.fits.card
Card
p8
g2
Ntp9
Rp10
(dp11
S'_invalid'
p12
I00
sS'_image'
p13
S'SIMPLE  =                    T /                                                '
p14
sS'_rawvalue'
p15
NsS'_valuestring'
p16
S'T'
p17
sS'_verified'
p18
I00
sS'_field_specifier'
p19
NsS'_comment'
p20
NsS'_rawkeyword'
p21
NsS'_value'
p22
I01
sS'_modified'
p23
I00
sS'_hierarch'
p24
I00
sS'_keyword'
p25
S'SIMPLE'
p26
sS'_valuemodified'
p27
I00
sbag0
(g8
g2
Ntp28
Rp29
(dp30
g12
I00
sg13
S'BITPIX  =                  -32 /                                                '
p31
sg15
Nsg16
S'-32 '
p32
sg18
I00
sg19
Nsg20
Nsg21
Nsg22
I-32
sg23
I00
sg24
I00
sg25
S'BITPIX'
p33
sg27
I00
sbag0
(g8
g2
Ntp34
Rp35
(dp36
g12
I00
sg13
S'NAXIS   =                    4 /                                                '
p37
sg15
Nsg16
S'4 '
p38
sg18
I00
sg19
Nsg20
Nsg21
Nsg22
I4
sg23
I00
sg24
I00
sg25
S'NAXIS'
p39
sg27
I00
sbag0
(g8
g2
Ntp40
Rp41
(dp42
g12
I00
sg13
S'NAXIS1  =                 1024 /                                                '
p43
sg15
Nsg16
S'1024 '
p44
sg18
I00
sg19
Nsg20
Nsg21
Nsg22
I1024
sg23
I00
sg24
I00
sg25
S'NAXIS1'
p45
sg27
I00
sbag0
(g8
g2
Ntp46
Rp47
(dp48
g12
I00
sg13
S'NAXIS2  =                 1024 /                                                '
p49
sg15
Nsg16
S'1024 '
p50
sg18
I00
sg19
Nsg20
Nsg21
Nsg22
I1024
sg23
I00
sg24
I00
sg25
S'NAXIS2'
p51
sg27
I00
sbag0
(g8
g2
Ntp52
Rp53
(dp54
g12
I00
sg13
S'NAXIS3  =                    1 /                                                '
p55
sg15
Nsg16
S'1 '
p56
sg18
I00
sg19
Nsg20
Nsg21
Nsg22
I1
sg23
I00
sg24
I00
sg25
S'NAXIS3'
p57
sg27
I00
sbag0
(g8
g2
Ntp58
Rp59
(dp60
g12
I00
sg13
S'NAXIS4  =                    1 /                                                '
p61
sg15
Nsg16
S'1 '
p62
sg18
I00
sg19
Nsg20
Nsg21
Nsg22
I1
sg23
I00
sg24
I00
sg25
S'NAXIS4'
p63
sg27
I00
sbag0
(g8
g2
Ntp64
Rp65
(dp66
g12
I00
sg13
S'EXTEND  =                    T /Tables following main image                     '
p67
sg15
Nsg16
g17
sg18
I00
sg19
Nsg20
Nsg21
Nsg22
I01
sg23
I00
sg24
I00
sg25
S'EXTEND'
p68
sg27
I00
sbag0
(g8
g2
Ntp69
Rp70
(dp71
g12
I00
sg13
S'BLOCKED =                    T /Tape may be blocked                             '
p72
sg15
Nsg16
Nsg18
I00
sg19
Nsg20
Nsg21
Nsg22
Nsg23
I00
sg24
I00
sg25
S'BLOCKED'
p73
sg27
I00
sbag0
(g8
g2
Ntp74
Rp75
(dp76
g12
I00
sg13
S"OBJECT  = '1700+515'           /Source name                                     "
p77
sg15
Nsg16
Nsg18
I00
sg19
Nsg20
Nsg21
Nsg22
Nsg23
I00
sg24
I00
sg25
S'OBJECT'
p78
sg27
I00
sbag0
(g8
g2
Ntp79
Rp80
(dp81
g12
I00
sg13
S"TELESCOP= 'e-MERLIN'           /                                                "
p82
sg15
Nsg16
Nsg18
I00
sg19
Nsg20
Nsg21
Nsg22
Nsg23
I00
sg24
I00
sg25
S'TELESCOP'
p83
sg27
I00
sbag0
(g8
g2
Ntp84
Rp85
(dp86
g12
I00
sg13
S"INSTRUME= 'VLBA    '           /                                                "
p87
sg15
Nsg16
Nsg18
I00
sg19
Nsg20
Nsg21
Nsg22
Nsg23
I00
sg24
I00
sg25
S'INSTRUME'
p88
sg27
I00
sbag0
(g8
g2
Ntp89
Rp90
(dp91
g12
I00
sg13
S"OBSERVER= '12A043_C'           /                                                "
p92
sg15
Nsg16
Nsg18
I00
sg19
Nsg20
Nsg21
Nsg22
Nsg23
I00
sg24
I00
sg25
S'OBSERVER'
p93
sg27
I00
sbag0
(g8
g2
Ntp94
Rp95
(dp96
g12
I00
sg13
S"DATE-OBS= '2015-11-13'         /Obs start date YYYY-MM-DD                       "
p97
sg15
Nsg16
Nsg18
I00
sg19
Nsg20
Nsg21
Nsg22
Nsg23
I00
sg24
I00
sg25
S'DATE-OBS'
p98
sg27
I00
sbag0
(g8
g2
Ntp99
Rp100
(dp101
g12
I00
sg13
S"DATE-MAP= '2018-02-08'         /Last processing date YYYY-MM-DD                 "
p102
sg15
Nsg16
Nsg18
I00
sg19
Nsg20
Nsg21
Nsg22
Nsg23
I00
sg24
I00
sg25
S'DATE-MAP'
p103
sg27
I00
sbag0
(g8
g2
Ntp104
Rp105
(dp106
g12
I00
sg13
S'BSCALE  =    1.00000000000E+00 /REAL = TAPE * BSCALE + BZERO                    '
p107
sg15
Nsg16
S'1.00000000000E+00'
p108
sg18
I00
sg19
Nsg20
Nsg21
Nsg22
F1.0
sg23
I00
sg24
I00
sg25
S'BSCALE'
p109
sg27
I00
sbag0
(g8
g2
Ntp110
Rp111
(dp112
g12
I00
sg13
S'BZERO   =    0.00000000000E+00 /                                                '
p113
sg15
Nsg16
S'0.00000000000E+00'
p114
sg18
I00
sg19
Nsg20
Nsg21
Nsg22
F0.0
sg23
I00
sg24
I00
sg25
S'BZERO'
p115
sg27
I00
sbag0
(g8
g2
Ntp116
Rp117
(dp118
g12
I00
sg13
S"BUNIT   = 'JY/BEAM '           /Units of flux                                   "
p119
sg15
Nsg16
Nsg18
I00
sg19
Nsg20
Nsg21
Nsg22
Nsg23
I00
sg24
I00
sg25
S'BUNIT'
p120
sg27
I00
sbag0
(g8
g2
Ntp121
Rp122
(dp123
g12
I00
sg13
S'EQUINOX =      2.000000000E+03 /Epoch of RA DEC                                 '
p124
sg15
Nsg16
Nsg18
I00
sg19
Nsg20
Nsg21
Nsg22
Nsg23
I00
sg24
I00
sg25
S'EQUINOX'
p125
sg27
I00
sbag0
(g8
g2
Ntp126
Rp127
(dp128
g12
I00
sg13
S'VELREF  =                  259 />256 RADIO, 1 LSR 2 HEL 3 OBS                   '
p129
sg15
Nsg16
Nsg18
I00
sg19
Nsg20
Nsg21
Nsg22
Nsg23
I00
sg24
I00
sg25
S'VELREF'
p130
sg27
I00
sbag0
(g8
g2
Ntp131
Rp132
(dp133
g12
I00
sg13
S'ALTRPIX =      5.039062500E-01 /Altenate FREQ/VEL ref pixel                     '
p134
sg15
Nsg16
Nsg18
I00
sg19
Nsg20
Nsg21
Nsg22
Nsg23
I00
sg24
I00
sg25
S'ALTRPIX'
p135
sg27
I00
sbag0
(g8
g2
Ntp136
Rp137
(dp138
g12
I00
sg13
S'OBSRA   =    2.55353450833E+02 /Antenna pointing RA                             '
p139
sg15
Nsg16
Nsg18
I00
sg19
Nsg20
Nsg21
Nsg22
Nsg23
I00
sg24
I00
sg25
S'OBSRA'
p140
sg27
I00
sbag0
(g8
g2
Ntp141
Rp142
(dp143
g12
I00
sg13
S'OBSDEC  =    5.18222747222E+01 /Antenna pointing DEC                            '
p144
sg15
Nsg16
Nsg18
I00
sg19
Nsg20
Nsg21
Nsg22
Nsg23
I00
sg24
I00
sg25
S'OBSDEC'
p145
sg27
I00
sbag0
(g8
g2
Ntp146
Rp147
(dp148
g12
I00
sg13
S'DATAMAX =      1.821698737E-03 /Maximum pixel value                             '
p149
sg15
Nsg16
Nsg18
I00
sg19
Nsg20
Nsg21
Nsg22
Nsg23
I00
sg24
I00
sg25
S'DATAMAX'
p150
sg27
I00
sbag0
(g8
g2
Ntp151
Rp152
(dp153
g12
I00
sg13
S'DATAMIN =     -1.483236556E-04 /Minimum pixel value                             '
p154
sg15
Nsg16
Nsg18
I00
sg19
Nsg20
Nsg21
Nsg22
Nsg23
I00
sg24
I00
sg25
S'DATAMIN'
p155
sg27
I00
sbag0
(g8
g2
Ntp156
Rp157
(dp158
g12
I00
sg13
S"CTYPE1  = 'RA---SIN'           /                                                "
p159
sg15
Nsg16
Nsg18
I00
sg19
Nsg20
Nsg21
Nsg22
Nsg23
I00
sg24
I00
sg25
S'CTYPE1'
p160
sg27
I00
sbag0
(g8
g2
Ntp161
Rp162
(dp163
g12
I00
sg13
S'CRVAL1  =    2.55353450833E+02 /                                                '
p164
sg15
Nsg16
Nsg18
I00
sg19
Nsg20
Nsg21
Nsg22
Nsg23
I00
sg24
I00
sg25
S'CRVAL1'
p165
sg27
I00
sbag0
(g8
g2
Ntp166
Rp167
(dp168
g12
I00
sg13
S'CDELT1  =     -2.777777809E-06 /                                                '
p169
sg15
Nsg16
Nsg18
I00
sg19
Nsg20
Nsg21
Nsg22
Nsg23
I00
sg24
I00
sg25
S'CDELT1'
p170
sg27
I00
sbag0
(g8
g2
Ntp171
Rp172
(dp173
g12
I00
sg13
S'CRPIX1  =      5.120000000E+02 /                                                '
p174
sg15
Nsg16
Nsg18
I00
sg19
Nsg20
Nsg21
Nsg22
Nsg23
I00
sg24
I00
sg25
S'CRPIX1'
p175
sg27
I00
sbag0
(g8
g2
Ntp176
Rp177
(dp178
g12
I00
sg13
S'CROTA1  =      0.000000000E+00 /                                                '
p179
sg15
Nsg16
Nsg18
I00
sg19
Nsg20
Nsg21
Nsg22
Nsg23
I00
sg24
I00
sg25
S'CROTA1'
p180
sg27
I00
sbag0
(g8
g2
Ntp181
Rp182
(dp183
g12
I00
sg13
S"CTYPE2  = 'DEC--SIN'           /                                                "
p184
sg15
Nsg16
Nsg18
I00
sg19
Nsg20
Nsg21
Nsg22
Nsg23
I00
sg24
I00
sg25
S'CTYPE2'
p185
sg27
I00
sbag0
(g8
g2
Ntp186
Rp187
(dp188
g12
I00
sg13
S'CRVAL2  =    5.18222747222E+01 /                                                '
p189
sg15
Nsg16
Nsg18
I00
sg19
Nsg20
Nsg21
Nsg22
Nsg23
I00
sg24
I00
sg25
S'CRVAL2'
p190
sg27
I00
sbag0
(g8
g2
Ntp191
Rp192
(dp193
g12
I00
sg13
S'CDELT2  =      2.777777809E-06 /                                                '
p194
sg15
Nsg16
Nsg18
I00
sg19
Nsg20
Nsg21
Nsg22
Nsg23
I00
sg24
I00
sg25
S'CDELT2'
p195
sg27
I00
sbag0
(g8
g2
Ntp196
Rp197
(dp198
g12
I00
sg13
S'CRPIX2  =      5.130000000E+02 /                                                '
p199
sg15
Nsg16
Nsg18
I00
sg19
Nsg20
Nsg21
Nsg22
Nsg23
I00
sg24
I00
sg25
S'CRPIX2'
p200
sg27
I00
sbag0
(g8
g2
Ntp201
Rp202
(dp203
g12
I00
sg13
S'CROTA2  =      0.000000000E+00 /                                                '
p204
sg15
Nsg16
Nsg18
I00
sg19
Nsg20
Nsg21
Nsg22
Nsg23
I00
sg24
I00
sg25
S'CROTA2'
p205
sg27
I00
sbag0
(g8
g2
Ntp206
Rp207
(dp208
g12
I00
sg13
S"CTYPE3  = 'FREQ    '           /                                                "
p209
sg15
Nsg16
Nsg18
I00
sg19
Nsg20
Nsg21
Nsg22
Nsg23
I00
sg24
I00
sg25
S'CTYPE3'
p210
sg27
I00
sbag0
(g8
g2
Ntp211
Rp212
(dp213
g12
I00
sg13
S'CRVAL3  =    5.07250539086E+09 /                                                '
p214
sg15
Nsg16
Nsg18
I00
sg19
Nsg20
Nsg21
Nsg22
Nsg23
I00
sg24
I00
sg25
S'CRVAL3'
p215
sg27
I00
sbag0
(g8
g2
Ntp216
Rp217
(dp218
g12
I00
sg13
S'CDELT3  =      5.120000000E+08 /                                                '
p219
sg15
Nsg16
Nsg18
I00
sg19
Nsg20
Nsg21
Nsg22
Nsg23
I00
sg24
I00
sg25
S'CDELT3'
p220
sg27
I00
sbag0
(g8
g2
Ntp221
Rp222
(dp223
g12
I00
sg13
S'CRPIX3  =      1.000000000E+00 /                                                '
p224
sg15
Nsg16
Nsg18
I00
sg19
Nsg20
Nsg21
Nsg22
Nsg23
I00
sg24
I00
sg25
S'CRPIX3'
p225
sg27
I00
sbag0
(g8
g2
Ntp226
Rp227
(dp228
g12
I00
sg13
S'CROTA3  =      0.000000000E+00 /                                                '
p229
sg15
Nsg16
Nsg18
I00
sg19
Nsg20
Nsg21
Nsg22
Nsg23
I00
sg24
I00
sg25
S'CROTA3'
p230
sg27
I00
sbag0
(g8
g2
Ntp231
Rp232
(dp233
g12
I00
sg13
S"CTYPE4  = 'STOKES  '           /                                                "
p234
sg15
Nsg16
Nsg18
I00
sg19
Nsg20
Nsg21
Nsg22
Nsg23
I00
sg24
I00
sg25
S'CTYPE4'
p235
sg27
I00
sbag0
(g8
g2
Ntp236
Rp237
(dp238
g12
I00
sg13
S'CRVAL4  =    1.00000000000E+00 /                                                '
p239
sg15
Nsg16
Nsg18
I00
sg19
Nsg20
Nsg21
Nsg22
Nsg23
I00
sg24
I00
sg25
S'CRVAL4'
p240
sg27
I00
sbag0
(g8
g2
Ntp241
Rp242
(dp243
g12
I00
sg13
S'CDELT4  =      1.000000000E+00 /                                                '
p244
sg15
Nsg16
Nsg18
I00
sg19
Nsg20
Nsg21
Nsg22
Nsg23
I00
sg24
I00
sg25
S'CDELT4'
p245
sg27
I00
sbag0
(g8
g2
Ntp246
Rp247
(dp248
g12
I00
sg13
S'CRPIX4  =      1.000000000E+00 /                                                '
p249
sg15
Nsg16
Nsg18
I00
sg19
Nsg20
Nsg21
Nsg22
Nsg23
I00
sg24
I00
sg25
S'CRPIX4'
p250
sg27
I00
sbag0
(g8
g2
Ntp251
Rp252
(dp253
g12
I00
sg13
S'CROTA4  =      0.000000000E+00 /                                                '
p254
sg15
Nsg16
Nsg18
I00
sg19
Nsg20
Nsg21
Nsg22
Nsg23
I00
sg24
I00
sg25
S'CROTA4'
p255
sg27
I00
sbag0
(g8
g2
Ntp256
Rp257
(dp258
g12
I00
sg13
S"ORIGIN  = 'AIPSnorma4       NORMA4_RADCLIFF      31DEC16'    /                  "
p259
sg15
Nsg16
Nsg18
I00
sg19
Nsg20
Nsg21
Nsg22
Nsg23
I00
sg24
I00
sg25
S'ORIGIN'
p260
sg27
I00
sbag0
(g8
g2
Ntp261
Rp262
(dp263
g12
I00
sg13
S"DATE    = '2018-02-08'   / File written on Greenwich yyyy-mm-dd                 "
p264
sg15
Nsg16
Nsg18
I00
sg19
Nsg20
Nsg21
Nsg22
Nsg23
I00
sg24
I00
sg25
S'DATE'
p265
sg27
I00
sbag0
(g8
g2
Ntp266
Rp267
(dp268
g12
I00
sg13
S"COMMENT   FITS (Flexible Image Transport System) format is defined in 'Astronomy"
p269
sg15
Nsg16
Nsg18
I00
sg19
Nsg20
Nsg21
Nsg22
Nsg23
I00
sg24
I00
sg25
S'COMMENT'
p270
sg27
I00
sbag0
(g8
g2
Ntp271
Rp272
(dp273
g12
I00
sg13
S"COMMENT   and Astrophysics', volume 376, page 359; bibcode: 2001A&A...376..359H "
p274
sg15
Nsg16
Nsg18
I00
sg19
Nsg20
Nsg21
Nsg22
Nsg23
I00
sg24
I00
sg25
S'COMMENT'
p275
sg27
I00
sbasg23
I01
sS'_keyword_indices'
p276
ccollections
defaultdict
p277
(c__builtin__
list
p278
tp279
Rp280
g68
(lp281
I7
asg26
(lp282
I0
asg170
(lp283
I27
asg195
(lp284
I32
asg78
(lp285
I9
asg245
(lp286
I42
asg39
(lp287
I2
asg98
(lp288
I13
asg145
(lp289
I22
asg140
(lp290
I21
asg270
(lp291
I47
aI48
asg125
(lp292
I18
asg130
(lp293
I19
asg88
(lp294
I11
asg255
(lp295
I44
asg230
(lp296
I39
asg205
(lp297
I34
asg180
(lp298
I29
asg135
(lp299
I20
asg73
(lp300
I8
asg260
(lp301
I45
asg103
(lp302
I14
asg220
(lp303
I37
asg160
(lp304
I25
asg93
(lp305
I12
asg45
(lp306
I3
asg57
(lp307
I5
asg51
(lp308
I4
asg63
(lp309
I6
asg185
(lp310
I30
asg120
(lp311
I17
asg265
(lp312
I46
asg155
(lp313
I24
asg225
(lp314
I38
asg215
(lp315
I36
asg250
(lp316
I43
asg240
(lp317
I41
asg190
(lp318
I31
asg175
(lp319
I28
asg200
(lp320
I33
asg165
(lp321
I26
asg115
(lp322
I16
asg83
(lp323
I10
asg235
(lp324
I40
asg210
(lp325
I35
asg150
(lp326
I23
asg33
(lp327
I1
asg109
(lp328
I15
assS'_rvkc_indices'
p329
g277
(g278
tp330
Rp331
sb.